; Function Attrs: nounwind uwtable
define range(i32 0, 2) i32 @ff_test_fmt(ptr noundef readonly captures(none) %0, i32 noundef %1) local_unnamed_addr #1 {
  %3 = load i32, ptr %0, align 8, !tbaa !20
  %4 = icmp sgt i32 %3, 0
  br i1 %4, label %5, label %sws_test_format.exit.thread

5:                                                ; preds = %2
  %6 = getelementptr inbounds nuw i8, ptr %0, i64 4
  %7 = load i32, ptr %6, align 4, !tbaa !27
  %8 = icmp sgt i32 %7, 0
  br i1 %8, label %9, label %sws_test_format.exit.thread

9:                                                ; preds = %5
  %10 = getelementptr inbounds nuw i8, ptr %0, i64 12
  %11 = load i32, ptr %10, align 4, !tbaa !29
  %.not.i = icmp eq i32 %1, 0
  %12 = icmp ult i32 %11, 256
  br i1 %.not.i, label %19, label %13

13:                                               ; preds = %9
  br i1 %12, label %14, label %sws_test_format.exit.thread

14:                                               ; preds = %13
  %15 = zext nneg i32 %11 to i64
  %16 = getelementptr inbounds nuw [256 x %struct.FormatEntry], ptr @format_entries, i64 0, i64 %15
  %17 = load i8, ptr %16, align 1
  %18 = lshr i8 %17, 1
  br label %sws_test_format.exit

19:                                               ; preds = %9
  br i1 %12, label %20, label %sws_test_format.exit.thread

20:                                               ; preds = %19
  %21 = zext nneg i32 %11 to i64
  %22 = getelementptr inbounds nuw [256 x %struct.FormatEntry], ptr @format_entries, i64 0, i64 %21
  %23 = load i8, ptr %22, align 1
  br label %sws_test_format.exit

sws_test_format.exit:                             ; preds = %14, %20
  %.shrunk.i.in = phi i8 [ %18, %14 ], [ %23, %20 ]
  %.shrunk.i = and i8 %.shrunk.i.in, 1
  %.not = icmp eq i8 %.shrunk.i, 0
  br i1 %.not, label %sws_test_format.exit.thread, label %24

24:                                               ; preds = %sws_test_format.exit
  %25 = getelementptr inbounds nuw i8, ptr %0, i64 20
  %26 = load i32, ptr %25, align 4, !tbaa !33
  switch i32 %26, label %sws_test_format.exit.thread [
    i32 2, label %sws_test_colorspace.exit
    i32 0, label %sws_test_colorspace.exit
    i32 1, label %sws_test_colorspace.exit
    i32 5, label %sws_test_colorspace.exit
    i32 6, label %sws_test_colorspace.exit
    i32 4, label %sws_test_colorspace.exit
    i32 7, label %sws_test_colorspace.exit
    i32 9, label %sws_test_colorspace.exit
  ]

sws_test_colorspace.exit:                         ; preds = %24, %24, %24, %24, %24, %24, %24, %24
  %27 = getelementptr inbounds nuw i8, ptr %0, i64 40
  %28 = load i32, ptr %27, align 8, !tbaa !46
  %29 = add i32 %28, -23
  %or.cond.i = icmp ult i32 %29, -22
  %30 = icmp eq i32 %28, 3
  %narrow.i.not = or i1 %30, %or.cond.i
  br i1 %narrow.i.not, label %sws_test_format.exit.thread, label %31

31:                                               ; preds = %sws_test_colorspace.exit
  %32 = getelementptr inbounds nuw i8, ptr %0, i64 44
  %33 = load i32, ptr %32, align 4, !tbaa !64
  br i1 %.not.i, label %36, label %34

34:                                               ; preds = %31
  %35 = tail call ptr @av_csp_itu_eotf_inv(i32 noundef %33) #8
  br label %sws_test_transfer.exit

36:                                               ; preds = %31
  %37 = tail call ptr @av_csp_itu_eotf(i32 noundef %33) #8
  br label %sws_test_transfer.exit

sws_test_transfer.exit:                           ; preds = %34, %36
  %38 = phi ptr [ %35, %34 ], [ %37, %36 ]
  %39 = icmp ne i32 %33, 2
  %40 = icmp eq ptr %38, null
  %.not23 = select i1 %39, i1 %40, i1 false
  br i1 %.not23, label %sws_test_format.exit.thread, label %41

41:                                               ; preds = %sws_test_transfer.exit
  %42 = getelementptr inbounds nuw i8, ptr %0, i64 16
  %43 = load i32, ptr %42, align 8, !tbaa !31
  %44 = icmp ugt i32 %43, 2
  br i1 %44, label %sws_test_format.exit.thread, label %45

45:                                               ; preds = %41
  %46 = getelementptr inbounds nuw i8, ptr %0, i64 24
  %47 = load i32, ptr %46, align 8, !tbaa !35
  %48 = icmp ult i32 %47, 7
  %49 = zext i1 %48 to i32
  br label %sws_test_format.exit.thread

sws_test_format.exit.thread:                      ; preds = %24, %19, %13, %45, %41, %sws_test_transfer.exit, %sws_test_colorspace.exit, %sws_test_format.exit, %5, %2
  %50 = phi i32 [ 0, %41 ], [ 0, %sws_test_transfer.exit ], [ 0, %sws_test_colorspace.exit ], [ 0, %sws_test_format.exit ], [ 0, %5 ], [ 0, %2 ], [ %49, %45 ], [ 0, %13 ], [ 0, %19 ], [ 0, %24 ]
  ret i32 %50
}